target datalayout = "e-m:e-p270:32:32-p271:32:32-p272:64:64-i64:64-i128:128-f80:128-n8:16:32:64-S128"
target triple = "x86_64-pc-linux-gnu"

%class.QString = type { %struct.QArrayDataPointer }
%struct.QArrayDataPointer = type { ptr, ptr, i64 }
%class.TimeShiftDialog = type { %class.QDialog, ptr, ptr, ptr, %class.QString }
%class.QDialog = type { %class.QWidget }
%class.QWidget = type { %class.QObject, %class.QPaintDevice.base, ptr }
%class.QObject = type { ptr, %class.QScopedPointer }
%class.QScopedPointer = type { ptr }
%class.QPaintDevice.base = type <{ ptr, i16 }>
%class.Ui_TimeShiftDialog = type { ptr, ptr, ptr, ptr, ptr, ptr, ptr, ptr, ptr, ptr, ptr, ptr, ptr, ptr, ptr, ptr, ptr, ptr, ptr, ptr, ptr, ptr, ptr, ptr, ptr, ptr }

; Function Attrs: mustprogress uwtable
define void @_ZN15TimeShiftDialog34on_setOneFrameLineEdit_textChangedERK7QString(ptr noundef nonnull align 8 dereferenceable(88) %0, ptr noundef nonnull align 8 dereferenceable(24) %1) #0 align 2 {
  %3 = alloca ptr, align 8
  %4 = alloca ptr, align 8
  store ptr %0, ptr %3, align 8
  store ptr %1, ptr %4, align 8
  %5 = load ptr, ptr %3, align 8
  %6 = getelementptr inbounds %class.TimeShiftDialog, ptr %5, i32 0, i32 1
  %7 = load ptr, ptr %6, align 8
  %8 = getelementptr inbounds %class.Ui_TimeShiftDialog, ptr %7, i32 0, i32 8
  %9 = load ptr, ptr %8, align 8
  call void @_ZN15TimeShiftDialog16checkFrameNumberER14SyntaxLineEdit(ptr noundef nonnull align 8 dereferenceable(88) %5, ptr noundef nonnull align 8 dereferenceable(185) %9)
  %10 = getelementptr inbounds %class.TimeShiftDialog, ptr %5, i32 0, i32 1
  %11 = load ptr, ptr %10, align 8
  %12 = getelementptr inbounds %class.Ui_TimeShiftDialog, ptr %11, i32 0, i32 7
  %13 = load ptr, ptr %12, align 8
  call void @_ZN15QAbstractButton10setCheckedEb(ptr noundef nonnull align 8 dereferenceable(40) %13, i1 noundef zeroext true)
  call void @_ZN15TimeShiftDialog13enableWidgetsEv(ptr noundef nonnull align 8 dereferenceable(88) %5)
  ret void
}