; Function Attrs: mustprogress uwtable
define void @_ZN15TimeShiftDialog34on_setOneFrameLineEdit_textChangedERK7QString(ptr noundef nonnull align 8 dereferenceable(88) %0, ptr nocapture noundef nonnull readnone align 8 dereferenceable(24) %1) local_unnamed_addr #0 align 2 {
  %3 = getelementptr inbounds i8, ptr %0, i64 40
  %4 = load ptr, ptr %3, align 8
  %5 = getelementptr inbounds i8, ptr %4, i64 64
  %6 = load ptr, ptr %5, align 8
  tail call void @_ZN15TimeShiftDialog16checkFrameNumberER14SyntaxLineEdit(ptr noundef nonnull align 8 dereferenceable(88) %0, ptr noundef nonnull align 8 dereferenceable(185) %6)
  %7 = load ptr, ptr %3, align 8
  %8 = getelementptr inbounds i8, ptr %7, i64 56
  %9 = load ptr, ptr %8, align 8
  tail call void @_ZN15QAbstractButton10setCheckedEb(ptr noundef nonnull align 8 dereferenceable(40) %9, i1 noundef zeroext true)
  tail call void @_ZN15TimeShiftDialog13enableWidgetsEv(ptr noundef nonnull align 8 dereferenceable(88) %0)
  ret void
}